; Function Attrs: mustprogress nofree norecurse nosync nounwind willreturn memory(argmem: readwrite) uwtable
define internal nonnull ptr @Pack1ByteSkip1(ptr nocapture readnone %0, ptr nocapture noundef readonly %1, ptr noundef writeonly %2, i32 %3) #3 {
  %5 = load i16, ptr %1, align 2
  %6 = zext i16 %5 to i32
  %7 = mul nuw i32 %6, 65281
  %8 = add nuw i32 %7, 8388608
  %9 = lshr i32 %8, 24
  %10 = trunc nuw i32 %9 to i8
  store i8 %10, ptr %2, align 1
  %11 = getelementptr inbounds i8, ptr %2, i64 2
  ret ptr %11
}